Certificate:
    Data:
        Version: 3 (0x2)
        Serial Number: 25 (0x19)
    Signature Algorithm: sha1WithRSAEncryption
        Issuer: C=MX, ST=MEX, L=Ciudad de Mexico, O=Intellilabs, S.A., OU=Sistemas, CN=Openvpn/name=CloudServices/emailAddress=luis.chacon@intellilabs.com.mx
        Validity
            Not Before: Apr  1 17:03:11 2021 GMT
            Not After : Mar 30 17:03:11 2031 GMT
        Subject: C=MX, ST=MEX, L=Ciudad de Mexico, O=Intellilabs, S.A., OU=Sistemas, CN=vpnpino02/name=CloudServices/emailAddress=luis.chacon@intellilabs.com.mx
        Subject Public Key Info:
            Public Key Algorithm: rsaEncryption
                Public-Key: (4096 bit)
                Modulus:
                    00:9e:04:ae:50:4c:a3:64:26:8c:ab:64:a1:10:88:
                    f7:1b:7a:5e:d5:b4:75:e0:4e:d2:28:f8:83:88:dd:
                    e1:85:3a:ab:e7:b7:72:0e:d2:0d:49:2c:e3:ff:15:
                    05:6a:85:76:e5:55:db:d2:fb:36:e5:16:b2:a0:e1:
                    06:93:1f:9f:30:33:49:4b:f2:c3:cb:73:ec:92:fd:
                    fe:90:ef:05:52:68:e7:ff:77:5a:25:65:05:b8:58:
                    8c:e4:fd:d8:5c:5c:20:32:10:b4:0a:44:7b:bb:ec:
                    30:d2:4c:76:9f:60:69:23:a4:a5:65:85:6b:36:b3:
                    2b:b5:7c:00:d4:0f:b1:10:34:c2:a5:73:10:4d:75:
                    d2:ef:0b:5b:c5:5e:d8:90:a5:fb:f6:f0:54:37:c0:
                    9a:98:14:93:27:61:8f:4a:16:43:27:73:91:d1:8e:
                    58:99:0d:cc:bb:25:17:4c:d6:30:c0:ec:ab:68:c5:
                    5a:14:1f:be:a5:fc:f1:91:2c:fb:e3:43:6f:2b:2d:
                    d8:2a:df:a8:95:b7:7c:ec:ee:5e:d8:8f:2e:d6:e6:
                    24:11:ca:b7:a5:15:03:82:07:ce:75:8d:2c:2d:ba:
                    73:bd:c3:78:33:1e:ab:59:7b:63:5c:c4:86:79:da:
                    56:4f:38:13:ce:8c:78:6b:39:8d:91:bd:95:98:65:
                    e7:fc:3f:96:df:be:2f:90:5b:9b:d0:fa:1c:8f:8d:
                    d9:68:e6:db:43:2e:ee:12:78:c8:1d:9a:d2:31:b6:
                    5f:fb:f8:58:86:a0:90:2f:3d:68:74:e2:6c:14:6a:
                    31:f0:a0:06:19:98:ed:18:90:7b:0b:5b:65:27:58:
                    9b:16:fd:27:cc:51:4c:9a:28:16:9d:9b:f9:46:fa:
                    03:a8:12:d9:11:7c:b1:6b:7f:37:47:12:a1:84:24:
                    76:5c:d3:20:7a:1f:95:df:0a:ee:bb:9b:d0:76:2e:
                    c4:45:11:be:35:6a:ee:8a:70:21:e9:5e:d8:fb:55:
                    d0:36:be:31:de:92:6c:ba:c3:ac:3e:23:40:51:9d:
                    7a:be:1e:c7:9c:11:d2:81:99:50:7a:ae:5b:43:91:
                    8a:6b:d0:ae:ee:92:f7:5c:14:de:10:3c:4d:76:65:
                    03:21:f5:9c:c8:ad:b6:5c:6b:c8:ee:67:bd:65:4d:
                    0f:89:fe:e2:60:83:6f:22:8e:b6:c6:ca:08:da:51:
                    40:18:d8:08:66:5d:44:68:49:07:f1:cb:53:31:c7:
                    9e:b6:ee:f2:27:6c:8c:09:71:c7:a5:a8:d6:c5:09:
                    e0:90:dc:db:8e:95:80:27:0a:62:2a:39:9c:58:ba:
                    e8:ca:ed:de:72:88:44:6b:a2:9b:34:c5:83:44:3d:
                    4f:51:9f
                Exponent: 65537 (0x10001)
        X509v3 extensions:
            X509v3 Basic Constraints: 
                CA:FALSE
            Netscape Comment: 
                Easy-RSA Generated Certificate
            X509v3 Subject Key Identifier: 
                2E:72:01:4E:07:9B:34:DA:50:BB:D3:85:AD:D5:7B:1F:1B:6F:09:CC
            X509v3 Authority Key Identifier: 
                keyid:4D:F4:F0:56:A4:A6:CA:2E:81:9D:C5:AA:0F:8B:4B:BE:02:0A:14:E8
                DirName:/C=MX/ST=MEX/L=Ciudad de Mexico/O=Intellilabs, S.A./OU=Sistemas/CN=Openvpn/name=CloudServices/emailAddress=luis.chacon@intellilabs.com.mx
                serial:91:73:62:99:C4:0D:02:BC

            X509v3 Extended Key Usage: 
                TLS Web Client Authentication
            X509v3 Key Usage: 
                Digital Signature
    Signature Algorithm: sha1WithRSAEncryption
         78:9b:2c:db:80:f7:ea:08:8c:52:53:65:ff:04:64:5d:c8:b7:
         03:1e:38:76:50:da:00:c7:29:c2:cd:2d:ef:df:f9:6e:1c:ff:
         18:78:86:d3:18:5a:8a:3e:5d:f5:43:d8:58:ed:9d:42:c9:47:
         e8:68:6f:61:5b:fe:d5:90:27:42:80:af:1a:c2:5c:15:ab:23:
         63:5a:16:ca:34:ab:fe:10:2f:46:ab:97:91:02:35:fe:8c:15:
         ee:d4:d0:56:b8:f3:64:4c:18:e5:7c:ee:b1:f9:08:1b:4b:ae:
         f9:42:d4:6a:90:3b:d8:a6:31:1a:4d:6f:b2:02:e4:ce:08:2f:
         38:6e:b7:26:f1:4b:75:18:13:a1:73:e0:bb:31:af:21:d7:40:
         48:ee:eb:4a:e7:0f:08:14:25:ec:94:fd:cf:48:28:7a:2f:9f:
         06:c3:98:e4:80:78:ed:d2:b0:d6:7e:21:d4:ef:9c:58:87:bd:
         be:12:19:c2:21:00:04:77:f9:36:04:35:b7:2b:93:41:40:03:
         e4:e8:34:7e:da:4e:23:91:79:b4:27:31:33:7f:ea:81:8d:0f:
         bc:43:57:ff:6b:90:14:12:c0:ff:2c:0f:c5:51:e9:d1:df:91:
         8c:45:c1:1e:d0:a1:dd:8f:d4:b6:92:e7:89:d2:23:4d:59:ce:
         eb:cd:72:c6:b6:ce:ce:07:fa:e8:7b:9b:58:74:95:53:78:86:
         30:98:31:62:1a:28:42:99:b4:c6:d3:cd:f6:91:07:fa:0c:ee:
         34:ce:b7:92:f2:97:02:a9:7f:e7:ad:36:1d:4d:e9:2e:fd:3f:
         ce:6a:95:d7:d0:eb:4d:3d:de:4f:95:5b:e4:d6:13:b0:bf:15:
         70:b6:b5:91:8a:3f:1e:cf:1d:4c:c1:dd:cb:c9:6a:a8:78:20:
         98:1d:19:1f:b7:32:73:64:8c:94:22:b3:db:59:5d:0e:58:54:
         21:0f:35:4d:49:21:68:3e:e3:e1:86:a8:19:f6:80:d0:e1:fa:
         9d:ce:b4:50:a4:7f:9d:ed:77:21:ff:70:03:89:97:a8:98:06:
         b8:1d:b3:59:76:40:58:ce:06:aa:d3:c6:99:0f:65:22:cb:5e:
         9a:30:d7:cf:1f:f0:50:44:b5:d5:15:2f:83:1d:b4:9c:f3:c1:
         a8:f2:96:b8:ff:b5:2b:cd:c2:66:fb:e3:a9:17:f6:d9:5b:4a:
         00:21:08:ae:5b:8b:d0:70:be:d3:4c:f6:18:e3:85:61:39:d4:
         9e:59:8e:a2:c2:79:b2:23:ea:56:36:40:d3:f6:9a:ac:3e:c0:
         ef:ef:7e:44:0c:b1:a1:30:72:77:1c:bb:3a:cc:6e:b1:bb:f0:
         43:66:d6:d1:7a:fc:f8:f3
-----BEGIN CERTIFICATE-----
MIIHcjCCBVqgAwIBAgIBGTANBgkqhkiG9w0BAQUFADCBvjELMAkGA1UEBhMCTVgx
DDAKBgNVBAgTA01FWDEZMBcGA1UEBxMQQ2l1ZGFkIGRlIE1leGljbzEaMBgGA1UE
ChMRSW50ZWxsaWxhYnMsIFMuQS4xETAPBgNVBAsTCFNpc3RlbWFzMRAwDgYDVQQD
EwdPcGVudnBuMRYwFAYDVQQpEw1DbG91ZFNlcnZpY2VzMS0wKwYJKoZIhvcNAQkB
Fh5sdWlzLmNoYWNvbkBpbnRlbGxpbGFicy5jb20ubXgwHhcNMjEwNDAxMTcwMzEx
WhcNMzEwMzMwMTcwMzExWjCBwDELMAkGA1UEBhMCTVgxDDAKBgNVBAgTA01FWDEZ
MBcGA1UEBxMQQ2l1ZGFkIGRlIE1leGljbzEaMBgGA1UEChMRSW50ZWxsaWxhYnMs
IFMuQS4xETAPBgNVBAsTCFNpc3RlbWFzMRIwEAYDVQQDEwl2cG5waW5vMDIxFjAU
BgNVBCkTDUNsb3VkU2VydmljZXMxLTArBgkqhkiG9w0BCQEWHmx1aXMuY2hhY29u
QGludGVsbGlsYWJzLmNvbS5teDCCAiIwDQYJKoZIhvcNAQEBBQADggIPADCCAgoC
ggIBAJ4ErlBMo2QmjKtkoRCI9xt6XtW0deBO0ij4g4jd4YU6q+e3cg7SDUks4/8V
BWqFduVV29L7NuUWsqDhBpMfnzAzSUvyw8tz7JL9/pDvBVJo5/93WiVlBbhYjOT9
2FxcIDIQtApEe7vsMNJMdp9gaSOkpWWFazazK7V8ANQPsRA0wqVzEE110u8LW8Ve
2JCl+/bwVDfAmpgUkydhj0oWQydzkdGOWJkNzLslF0zWMMDsq2jFWhQfvqX88ZEs
++NDbyst2CrfqJW3fOzuXtiPLtbmJBHKt6UVA4IHznWNLC26c73DeDMeq1l7Y1zE
hnnaVk84E86MeGs5jZG9lZhl5/w/lt++L5Bbm9D6HI+N2Wjm20Mu7hJ4yB2a0jG2
X/v4WIagkC89aHTibBRqMfCgBhmY7RiQewtbZSdYmxb9J8xRTJooFp2b+Ub6A6gS
2RF8sWt/N0cSoYQkdlzTIHofld8K7rub0HYuxEURvjVq7opwIele2PtV0Da+Md6S
bLrDrD4jQFGder4ex5wR0oGZUHquW0ORimvQru6S91wU3hA8TXZlAyH1nMittlxr
yO5nvWVND4n+4mCDbyKOtsbKCNpRQBjYCGZdRGhJB/HLUzHHnrbu8idsjAlxx6Wo
1sUJ4JDc246VgCcKYio5nFi66Mrt3nKIRGuimzTFg0Q9T1GfAgMBAAGjggF1MIIB
cTAJBgNVHRMEAjAAMC0GCWCGSAGG+EIBDQQgFh5FYXN5LVJTQSBHZW5lcmF0ZWQg
Q2VydGlmaWNhdGUwHQYDVR0OBBYEFC5yAU4HmzTaULvTha3Vex8bbwnMMIHzBgNV
HSMEgeswgeiAFE308FakpsougZ3Fqg+LS74CChTooYHEpIHBMIG+MQswCQYDVQQG
EwJNWDEMMAoGA1UECBMDTUVYMRkwFwYDVQQHExBDaXVkYWQgZGUgTWV4aWNvMRow
GAYDVQQKExFJbnRlbGxpbGFicywgUy5BLjERMA8GA1UECxMIU2lzdGVtYXMxEDAO
BgNVBAMTB09wZW52cG4xFjAUBgNVBCkTDUNsb3VkU2VydmljZXMxLTArBgkqhkiG
9w0BCQEWHmx1aXMuY2hhY29uQGludGVsbGlsYWJzLmNvbS5teIIJAJFzYpnEDQK8
MBMGA1UdJQQMMAoGCCsGAQUFBwMCMAsGA1UdDwQEAwIHgDANBgkqhkiG9w0BAQUF
AAOCAgEAeJss24D36giMUlNl/wRkXci3Ax44dlDaAMcpws0t79/5bhz/GHiG0xha
ij5d9UPYWO2dQslH6GhvYVv+1ZAnQoCvGsJcFasjY1oWyjSr/hAvRquXkQI1/owV
7tTQVrjzZEwY5XzusfkIG0uu+ULUapA72KYxGk1vsgLkzggvOG63JvFLdRgToXPg
uzGvIddASO7rSucPCBQl7JT9z0goei+fBsOY5IB47dKw1n4h1O+cWIe9vhIZwiEA
BHf5NgQ1tyuTQUAD5Og0ftpOI5F5tCcxM3/qgY0PvENX/2uQFBLA/ywPxVHp0d+R
jEXBHtCh3Y/UtpLnidIjTVnO681yxrbOzgf66HubWHSVU3iGMJgxYhooQpm0xtPN
9pEH+gzuNM63kvKXAql/5602HU3pLv0/zmqV19DrTT3eT5Vb5NYTsL8VcLa1kYo/
Hs8dTMHdy8lqqHggmB0ZH7cyc2SMlCKz21ldDlhUIQ81TUkhaD7j4YaoGfaA0OH6
nc60UKR/ne13If9wA4mXqJgGuB2zWXZAWM4GqtPGmQ9lIstemjDXzx/wUES11RUv
gx20nPPBqPKWuP+1K83CZvvjqRf22VtKACEIrluL0HC+00z2GOOFYTnUnlmOosJ5
siPqVjZA0/aarD7A7+9+RAyxoTBydxy7OsxusbvwQ2bW0Xr8+PM=
-----END CERTIFICATE-----
